; Function Attrs: mustprogress nofree nounwind willreturn memory(write, argmem: none, inaccessiblemem: readwrite) uwtable
define dso_local noalias noundef ptr @pointer_to(ptr noundef %base) local_unnamed_addr #5 {
entry:
  %call.i = tail call noalias dereferenceable_or_null(120) ptr @calloc(i64 noundef 1, i64 noundef 120) #11
  store i32 10, ptr %call.i, align 8
  %size2.i = getelementptr inbounds %struct.Type, ptr %call.i, i64 0, i32 1
  store i32 8, ptr %size2.i, align 4
  %align3.i = getelementptr inbounds %struct.Type, ptr %call.i, i64 0, i32 2
  store i32 8, ptr %align3.i, align 8
  %base1 = getelementptr inbounds %struct.Type, ptr %call.i, i64 0, i32 6
  store ptr %base, ptr %base1, align 8
  %is_unsigned = getelementptr inbounds %struct.Type, ptr %call.i, i64 0, i32 3
  store i8 1, ptr %is_unsigned, align 4
  ret ptr %call.i
}